target datalayout = "e-m:e-p270:32:32-p271:32:32-p272:64:64-i64:64-i128:128-f80:128-n8:16:32:64-S128"
target triple = "x86_64-pc-linux-gnu"

%struct.Lpk_Fun_t_ = type { ptr, i32, i32, [32 x i32], i32, [16 x i32], [16 x i8], [0 x i32] }

; Function Attrs: nounwind uwtable
define i32 @Lpk_DsdLateArriving(ptr noundef %0) #0 {
  %2 = alloca ptr, align 8
  %3 = alloca i32, align 4
  %4 = alloca i32, align 4
  store ptr %0, ptr %2, align 8, !tbaa !3
  call void @llvm.lifetime.start.p0(i64 4, ptr %3) #8
  call void @llvm.lifetime.start.p0(i64 4, ptr %4) #8
  store i32 0, ptr %4, align 4, !tbaa !10
  store i32 0, ptr %3, align 4, !tbaa !10
  br label %5

5:                                                ; preds = %36, %1
  %6 = load i32, ptr %3, align 4, !tbaa !10
  %7 = icmp ult i32 %6, 16
  br i1 %7, label %8, label %39

8:                                                ; preds = %5
  %9 = load ptr, ptr %2, align 8, !tbaa !3
  %10 = getelementptr inbounds nuw %struct.Lpk_Fun_t_, ptr %9, i32 0, i32 2
  %11 = load i32, ptr %10, align 4, !tbaa !12
  %12 = load i32, ptr %3, align 4, !tbaa !10
  %13 = shl i32 1, %12
  %14 = and i32 %11, %13
  %15 = icmp ne i32 %14, 0
  br i1 %15, label %17, label %16

16:                                               ; preds = %8
  br label %35

17:                                               ; preds = %8
  %18 = load ptr, ptr %2, align 8, !tbaa !3
  %19 = getelementptr inbounds nuw %struct.Lpk_Fun_t_, ptr %18, i32 0, i32 5
  %20 = load i32, ptr %3, align 4, !tbaa !10
  %21 = zext i32 %20 to i64
  %22 = getelementptr inbounds nuw [16 x i32], ptr %19, i64 0, i64 %21
  %23 = load i32, ptr %22, align 4, !tbaa !10
  %24 = load ptr, ptr %2, align 8, !tbaa !3
  %25 = getelementptr inbounds nuw %struct.Lpk_Fun_t_, ptr %24, i32 0, i32 4
  %26 = load i32, ptr %25, align 8, !tbaa !47
  %27 = sub nsw i32 %26, 2
  %28 = icmp sgt i32 %23, %27
  br i1 %28, label %29, label %34

29:                                               ; preds = %17
  %30 = load i32, ptr %3, align 4, !tbaa !10
  %31 = shl i32 1, %30
  %32 = load i32, ptr %4, align 4, !tbaa !10
  %33 = or i32 %32, %31
  store i32 %33, ptr %4, align 4, !tbaa !10
  br label %34

34:                                               ; preds = %29, %17
  br label %35

35:                                               ; preds = %34, %16
  br label %36

36:                                               ; preds = %35
  %37 = load i32, ptr %3, align 4, !tbaa !10
  %38 = add i32 %37, 1
  store i32 %38, ptr %3, align 4, !tbaa !10
  br label %5, !llvm.loop !57

39:                                               ; preds = %5
  %40 = load i32, ptr %4, align 4, !tbaa !10
  call void @llvm.lifetime.end.p0(i64 4, ptr %4) #8
  call void @llvm.lifetime.end.p0(i64 4, ptr %3) #8
  ret i32 %40
}