; Function Attrs: nofree norecurse nosync nounwind memory(argmem: read) uwtable
define i32 @Lpk_DsdLateArriving(ptr noundef readonly captures(none) %0) local_unnamed_addr #4 {
  %2 = getelementptr inbounds nuw i8, ptr %0, i64 12
  %3 = load i32, ptr %2, align 4, !tbaa !3
  %4 = getelementptr inbounds nuw i8, ptr %0, i64 148
  %5 = getelementptr inbounds nuw i8, ptr %0, i64 144
  br label %6

6:                                                ; preds = %1, %17
  %indvars.iv = phi i64 [ 0, %1 ], [ %indvars.iv.next, %17 ]
  %.011 = phi i32 [ 0, %1 ], [ %.1, %17 ]
  %7 = trunc nuw nsw i64 %indvars.iv to i32
  %8 = shl nuw nsw i32 1, %7
  %9 = and i32 %3, %8
  %.not = icmp eq i32 %9, 0
  br i1 %.not, label %17, label %10

10:                                               ; preds = %6
  %11 = getelementptr inbounds nuw [16 x i32], ptr %4, i64 0, i64 %indvars.iv
  %12 = load i32, ptr %11, align 4, !tbaa !12
  %13 = load i32, ptr %5, align 8, !tbaa !38
  %14 = add nsw i32 %13, -2
  %15 = icmp sgt i32 %12, %14
  %16 = select i1 %15, i32 %8, i32 0
  %spec.select = or i32 %16, %.011
  br label %17

17:                                               ; preds = %10, %6
  %.1 = phi i32 [ %.011, %6 ], [ %spec.select, %10 ]
  %indvars.iv.next = add nuw nsw i64 %indvars.iv, 1
  %exitcond.not = icmp eq i64 %indvars.iv.next, 16
  br i1 %exitcond.not, label %18, label %6, !llvm.loop !47

18:                                               ; preds = %17
  ret i32 %.1
}